target datalayout = "e-m:e-p270:32:32-p271:32:32-p272:64:64-i64:64-i128:128-f80:128-n8:16:32:64-S128"
target triple = "x86_64-pc-linux-gnu"

@proto_register_at_command.ett = internal global [4 x ptr] [ptr @ett_at, ptr @ett_at_command, ptr @ett_at_data_part, ptr @ett_at_parameters], align 16
@.str.298 = private unnamed_addr constant [11 x i8] c"AT Command\00", align 1
@.str.299 = private unnamed_addr constant [3 x i8] c"AT\00", align 1
@.str.300 = private unnamed_addr constant [3 x i8] c"at\00", align 1
@proto_at = internal global i32 0, align 4
@.str.301 = private unnamed_addr constant [5 x i8] c"role\00", align 1
@.str.302 = private unnamed_addr constant [52 x i8] c"Force treat packets as DTE (PC) or DCE (Modem) role\00", align 1
@at_role = internal global i32 0, align 4

; Function Attrs: null_pointer_is_valid sspstrong uwtable
define hidden void @proto_register_at_command() #0 {
  %1 = alloca ptr, align 8
  %2 = alloca ptr, align 8
  call void @llvm.lifetime.start.p0(i64 8, ptr %1) #12
  call void @llvm.lifetime.start.p0(i64 8, ptr %2) #12
  %3 = call i32 @proto_register_protocol(ptr noundef @.str.298, ptr noundef @.str.299, ptr noundef @.str.300)
  store i32 %3, ptr @proto_at, align 4
  %4 = load i32, ptr @proto_at, align 4
  call void @proto_register_field_array(i32 noundef %4, ptr noundef @proto_register_at_command.hf, i32 noundef 127)
  call void @proto_register_subtree_array(ptr noundef @proto_register_at_command.ett, i32 noundef 4)
  %5 = load i32, ptr @proto_at, align 4
  %6 = call ptr @expert_register_protocol(i32 noundef %5)
  store ptr %6, ptr %2, align 8
  %7 = load ptr, ptr %2, align 8
  call void @expert_register_field_array(ptr noundef %7, ptr noundef @proto_register_at_command.ei, i32 noundef 22)
  %8 = load i32, ptr @proto_at, align 4
  %9 = call ptr @prefs_register_protocol(i32 noundef %8, ptr noundef null)
  store ptr %9, ptr %1, align 8
  %10 = load ptr, ptr %1, align 8
  call void @prefs_register_enum_preference(ptr noundef %10, ptr noundef @.str.301, ptr noundef @.str.302, ptr noundef @.str.302, ptr noundef @at_role, ptr noundef @pref_at_role, i1 noundef zeroext true)
  %11 = load i32, ptr @proto_at, align 4
  %12 = call ptr @register_dissector(ptr noundef @.str.300, ptr noundef @dissect_at, i32 noundef %11)
  call void @llvm.lifetime.end.p0(i64 8, ptr %2) #12
  call void @llvm.lifetime.end.p0(i64 8, ptr %1) #12
  ret void
}