; Function Attrs: null_pointer_is_valid sspstrong uwtable
define hidden void @proto_register_at_command() local_unnamed_addr #0 {
  %1 = tail call i32 @proto_register_protocol(ptr noundef nonnull @.str.298, ptr noundef nonnull @.str.299, ptr noundef nonnull @.str.300)
  store i32 %1, ptr @proto_at, align 4
  tail call void @proto_register_field_array(i32 noundef %1, ptr noundef nonnull @proto_register_at_command.hf, i32 noundef 127)
  tail call void @proto_register_subtree_array(ptr noundef nonnull @proto_register_at_command.ett, i32 noundef 4)
  %2 = load i32, ptr @proto_at, align 4
  %3 = tail call ptr @expert_register_protocol(i32 noundef %2)
  tail call void @expert_register_field_array(ptr noundef %3, ptr noundef nonnull @proto_register_at_command.ei, i32 noundef 22)
  %4 = load i32, ptr @proto_at, align 4
  %5 = tail call ptr @prefs_register_protocol(i32 noundef %4, ptr noundef null)
  tail call void @prefs_register_enum_preference(ptr noundef %5, ptr noundef nonnull @.str.301, ptr noundef nonnull @.str.302, ptr noundef nonnull @.str.302, ptr noundef nonnull @at_role, ptr noundef nonnull @pref_at_role, i1 noundef zeroext true)
  %6 = load i32, ptr @proto_at, align 4
  %7 = tail call ptr @register_dissector(ptr noundef nonnull @.str.300, ptr noundef nonnull @dissect_at, i32 noundef %6)
  ret void
}